target datalayout = "e-m:e-p270:32:32-p271:32:32-p272:64:64-i64:64-i128:128-f80:128-n8:16:32:64-S128"
target triple = "x86_64-pc-linux-gnu"

; Function Attrs: nounwind uwtable
define i32 @stb_div_floor(i32 noundef %0, i32 noundef %1) #0 {
  %3 = alloca i32, align 4
  %4 = alloca i32, align 4
  %5 = alloca i32, align 4
  store i32 %0, ptr %4, align 4, !tbaa !3
  store i32 %1, ptr %5, align 4, !tbaa !3
  %6 = load i32, ptr %4, align 4, !tbaa !3
  %7 = icmp sge i32 %6, 0
  br i1 %7, label %8, label %38

8:                                                ; preds = %2
  %9 = load i32, ptr %5, align 4, !tbaa !3
  %10 = icmp slt i32 %9, 0
  br i1 %10, label %11, label %38

11:                                               ; preds = %8
  %12 = load i32, ptr %5, align 4, !tbaa !3
  %13 = add nsw i32 %12, 1
  %14 = load i32, ptr %4, align 4, !tbaa !3
  %15 = add nsw i32 -2147483648, %14
  %16 = icmp sge i32 %13, %15
  br i1 %16, label %17, label %25

17:                                               ; preds = %11
  %18 = load i32, ptr %5, align 4, !tbaa !3
  %19 = add nsw i32 %18, 1
  %20 = load i32, ptr %4, align 4, !tbaa !3
  %21 = sub nsw i32 %19, %20
  %22 = load i32, ptr %5, align 4, !tbaa !3
  %23 = sdiv i32 %21, %22
  %24 = sub nsw i32 0, %23
  store i32 %24, ptr %3, align 4
  br label %96

25:                                               ; preds = %11
  %26 = load i32, ptr %4, align 4, !tbaa !3
  %27 = sub nsw i32 0, %26
  %28 = load i32, ptr %5, align 4, !tbaa !3
  %29 = sdiv i32 %27, %28
  %30 = sub nsw i32 0, %29
  %31 = load i32, ptr %4, align 4, !tbaa !3
  %32 = sub nsw i32 0, %31
  %33 = load i32, ptr %5, align 4, !tbaa !3
  %34 = srem i32 %32, %33
  %35 = icmp ne i32 %34, 0
  %36 = select i1 %35, i32 -1, i32 0
  %37 = add nsw i32 %30, %36
  store i32 %37, ptr %3, align 4
  br label %96

38:                                               ; preds = %8, %2
  %39 = load i32, ptr %4, align 4, !tbaa !3
  %40 = icmp slt i32 %39, 0
  br i1 %40, label %41, label %92

41:                                               ; preds = %38
  %42 = load i32, ptr %5, align 4, !tbaa !3
  %43 = icmp sge i32 %42, 0
  br i1 %43, label %44, label %92

44:                                               ; preds = %41
  %45 = load i32, ptr %4, align 4, !tbaa !3
  %46 = icmp ne i32 %45, -2147483648
  br i1 %46, label %47, label %75

47:                                               ; preds = %44
  %48 = load i32, ptr %4, align 4, !tbaa !3
  %49 = add nsw i32 %48, 1
  %50 = load i32, ptr %5, align 4, !tbaa !3
  %51 = add nsw i32 -2147483648, %50
  %52 = icmp sge i32 %49, %51
  br i1 %52, label %53, label %62

53:                                               ; preds = %47
  %54 = load i32, ptr %4, align 4, !tbaa !3
  %55 = add nsw i32 %54, 1
  %56 = load i32, ptr %5, align 4, !tbaa !3
  %57 = sub nsw i32 %55, %56
  %58 = load i32, ptr %5, align 4, !tbaa !3
  %59 = sub nsw i32 0, %58
  %60 = sdiv i32 %57, %59
  %61 = sub nsw i32 0, %60
  store i32 %61, ptr %3, align 4
  br label %96

62:                                               ; preds = %47
  %63 = load i32, ptr %4, align 4, !tbaa !3
  %64 = sub nsw i32 0, %63
  %65 = load i32, ptr %5, align 4, !tbaa !3
  %66 = sdiv i32 %64, %65
  %67 = sub nsw i32 0, %66
  %68 = load i32, ptr %4, align 4, !tbaa !3
  %69 = load i32, ptr %5, align 4, !tbaa !3
  %70 = sub nsw i32 0, %69
  %71 = srem i32 %68, %70
  %72 = icmp ne i32 %71, 0
  %73 = select i1 %72, i32 -1, i32 0
  %74 = add nsw i32 %67, %73
  store i32 %74, ptr %3, align 4
  br label %96

75:                                               ; preds = %44
  %76 = load i32, ptr %4, align 4, !tbaa !3
  %77 = load i32, ptr %5, align 4, !tbaa !3
  %78 = add nsw i32 %76, %77
  %79 = sub nsw i32 0, %78
  %80 = load i32, ptr %5, align 4, !tbaa !3
  %81 = sdiv i32 %79, %80
  %82 = sub nsw i32 0, %81
  %83 = load i32, ptr %4, align 4, !tbaa !3
  %84 = load i32, ptr %5, align 4, !tbaa !3
  %85 = add nsw i32 %83, %84
  %86 = sub nsw i32 0, %85
  %87 = load i32, ptr %5, align 4, !tbaa !3
  %88 = srem i32 %86, %87
  %89 = icmp ne i32 %88, 0
  %90 = select i1 %89, i32 -2, i32 -1
  %91 = add nsw i32 %82, %90
  store i32 %91, ptr %3, align 4
  br label %96

92:                                               ; preds = %41, %38
  %93 = load i32, ptr %4, align 4, !tbaa !3
  %94 = load i32, ptr %5, align 4, !tbaa !3
  %95 = sdiv i32 %93, %94
  store i32 %95, ptr %3, align 4
  br label %96

96:                                               ; preds = %92, %75, %62, %53, %25, %17
  %97 = load i32, ptr %3, align 4
  ret i32 %97
}