; Function Attrs: mustprogress nofree norecurse nosync nounwind willreturn memory(none) uwtable
define i32 @stb_div_floor(i32 noundef %0, i32 noundef %1) local_unnamed_addr #0 {
  %3 = icmp sgt i32 %0, -1
  %4 = icmp slt i32 %1, 0
  %or.cond = and i1 %3, %4
  br i1 %or.cond, label %5, label %16

5:                                                ; preds = %2
  %6 = add nsw i32 %1, 1
  %7 = or disjoint i32 %0, -2147483648
  %.not43 = icmp slt i32 %6, %7
  br i1 %.not43, label %11, label %8

8:                                                ; preds = %5
  %.neg57 = sub i32 %0, %6
  %.nonneg50 = sub i32 0, %1
  %9 = udiv i32 %.neg57, %.nonneg50
  %10 = sub nsw i32 0, %9
  br label %39

11:                                               ; preds = %5
  %.nonneg45 = sub i32 0, %1
  %12 = udiv i32 %0, %.nonneg45
  %13 = urem i32 %0, %.nonneg45
  %.not44 = icmp ne i32 %13, 0
  %14 = sext i1 %.not44 to i32
  %15 = sub nsw i32 %14, %12
  br label %39

16:                                               ; preds = %2
  %17 = icmp slt i32 %0, 0
  %18 = icmp sgt i32 %1, -1
  %or.cond3 = and i1 %17, %18
  br i1 %or.cond3, label %19, label %37

19:                                               ; preds = %16
  %.not = icmp eq i32 %0, -2147483648
  br i1 %.not, label %32, label %20

20:                                               ; preds = %19
  %21 = add nsw i32 %0, 1
  %22 = or disjoint i32 %1, -2147483648
  %.not41 = icmp slt i32 %21, %22
  br i1 %.not41, label %26, label %23

23:                                               ; preds = %20
  %.neg56 = sub i32 %1, %21
  %24 = udiv i32 %.neg56, %1
  %25 = sub nsw i32 0, %24
  br label %39

26:                                               ; preds = %20
  %27 = sub nsw i32 0, %0
  %28 = udiv i32 %27, %1
  %29 = urem i32 %27, %1
  %.not42 = icmp ne i32 %29, 0
  %30 = sext i1 %.not42 to i32
  %31 = sub nsw i32 %30, %28
  br label %39

32:                                               ; preds = %19
  %.neg = sub nuw i32 -2147483648, %1
  %33 = udiv i32 %.neg, %1
  %34 = urem i32 %.neg, %1
  %.not40 = icmp eq i32 %34, 0
  %35 = select i1 %.not40, i32 -1, i32 -2
  %36 = sub nuw nsw i32 %35, %33
  br label %39

37:                                               ; preds = %16
  %38 = sdiv i32 %0, %1
  br label %39

39:                                               ; preds = %37, %32, %26, %23, %11, %8
  %.0 = phi i32 [ %10, %8 ], [ %15, %11 ], [ %25, %23 ], [ %31, %26 ], [ %36, %32 ], [ %38, %37 ]
  ret i32 %.0
}